target datalayout = "e-m:e-p270:32:32-p271:32:32-p272:64:64-i64:64-i128:128-f80:128-n8:16:32:64-S128"
target triple = "x86_64-pc-linux-gnu"

%"struct.base::FileDescriptor" = type <{ i32, i8, [3 x i8] }>

; Function Attrs: mustprogress nounwind uwtable
define linkonce_odr void @_ZN4base14FileDescriptorC2Ev(ptr noundef nonnull align 4 dereferenceable(5) %0) unnamed_addr #0 comdat align 2 {
  %2 = alloca ptr, align 8
  store ptr %0, ptr %2, align 8, !tbaa !27
  %3 = load ptr, ptr %2, align 8
  %4 = getelementptr inbounds nuw %"struct.base::FileDescriptor", ptr %3, i32 0, i32 0
  store i32 -1, ptr %4, align 4, !tbaa !30
  %5 = getelementptr inbounds nuw %"struct.base::FileDescriptor", ptr %3, i32 0, i32 1
  store i8 0, ptr %5, align 4, !tbaa !35
  ret void
}

; Function Attrs: mustprogress nounwind uwtable
define linkonce_odr void @_ZN4base14FileDescriptorC2Eib(ptr noundef nonnull align 4 dereferenceable(5) %0, i32 noundef %1, i1 noundef zeroext %2) unnamed_addr #0 comdat align 2 {
  %4 = alloca ptr, align 8
  %5 = alloca i32, align 4
  %6 = alloca i8, align 1
  store ptr %0, ptr %4, align 8, !tbaa !27
  store i32 %1, ptr %5, align 4, !tbaa !34
  %7 = zext i1 %2 to i8
  store i8 %7, ptr %6, align 1, !tbaa !29
  %8 = load ptr, ptr %4, align 8
  %9 = getelementptr inbounds nuw %"struct.base::FileDescriptor", ptr %8, i32 0, i32 0
  %10 = load i32, ptr %5, align 4, !tbaa !34
  store i32 %10, ptr %9, align 4, !tbaa !30
  %11 = getelementptr inbounds nuw %"struct.base::FileDescriptor", ptr %8, i32 0, i32 1
  %12 = load i8, ptr %6, align 1, !tbaa !29, !range !32, !noundef !33
  %13 = trunc i8 %12 to i1
  %14 = zext i1 %13 to i8
  store i8 %14, ptr %11, align 4, !tbaa !35
  ret void
}

; Function Attrs: mustprogress uwtable
define i64 @_ZN4base12SharedMemory10NULLHandleEv() #2 align 2 {
  %1 = alloca %"struct.base::FileDescriptor", align 4
  call void @_ZN4base14FileDescriptorC2Ev(ptr noundef nonnull align 4 dereferenceable(5) %1)
  %2 = load i64, ptr %1, align 4
  ret i64 %2
}

; Function Attrs: mustprogress uwtable
define i64 @_ZN4base12SharedMemory15DuplicateHandleERKNS_14FileDescriptorE(ptr noundef nonnull align 4 dereferenceable(5) %0) #2 align 2 {
  %2 = alloca %"struct.base::FileDescriptor", align 4
  %3 = alloca ptr, align 8
  %4 = alloca i32, align 4
  %5 = alloca i32, align 4
  %6 = alloca i32, align 4
  %7 = alloca i32, align 4
  store ptr %0, ptr %3, align 8, !tbaa !27
  call void @llvm.lifetime.start.p0(i64 4, ptr %4) #16
  call void @llvm.lifetime.start.p0(i64 4, ptr %5) #16
  br label %8

8:                                                ; preds = %20, %1
  %9 = load ptr, ptr %3, align 8, !tbaa !27
  %10 = getelementptr inbounds nuw %"struct.base::FileDescriptor", ptr %9, i32 0, i32 0
  %11 = load i32, ptr %10, align 4, !tbaa !30
  %12 = call i32 @dup(i32 noundef %11) #16
  store i32 %12, ptr %5, align 4, !tbaa !34
  br label %13

13:                                               ; preds = %8
  %14 = load i32, ptr %5, align 4, !tbaa !34
  %15 = icmp eq i32 %14, -1
  br i1 %15, label %16, label %20

16:                                               ; preds = %13
  %17 = call ptr @__errno_location() #17
  %18 = load i32, ptr %17, align 4, !tbaa !34
  %19 = icmp eq i32 %18, 4
  br label %20

20:                                               ; preds = %16, %13
  %21 = phi i1 [ false, %13 ], [ %19, %16 ]
  br i1 %21, label %8, label %22, !llvm.loop !43

22:                                               ; preds = %20
  %23 = load i32, ptr %5, align 4, !tbaa !34
  store i32 %23, ptr %6, align 4, !tbaa !34
  call void @llvm.lifetime.end.p0(i64 4, ptr %5) #16
  %24 = load i32, ptr %6, align 4, !tbaa !34
  store i32 %24, ptr %4, align 4, !tbaa !34
  %25 = load i32, ptr %4, align 4, !tbaa !34
  %26 = icmp slt i32 %25, 0
  br i1 %26, label %27, label %30

27:                                               ; preds = %22
  %28 = call i64 @_ZN4base12SharedMemory10NULLHandleEv()
  %29 = trunc i64 %28 to i40
  store i40 %29, ptr %2, align 4
  store i32 1, ptr %7, align 4
  br label %32

30:                                               ; preds = %22
  %31 = load i32, ptr %4, align 4, !tbaa !34
  call void @_ZN4base14FileDescriptorC2Eib(ptr noundef nonnull align 4 dereferenceable(5) %2, i32 noundef %31, i1 noundef zeroext true)
  store i32 1, ptr %7, align 4
  br label %32

32:                                               ; preds = %30, %27
  call void @llvm.lifetime.end.p0(i64 4, ptr %4) #16
  %33 = load i64, ptr %2, align 4
  ret i64 %33
}