; Function Attrs: mustprogress nounwind uwtable
define range(i64 0, 8589934592) i64 @_ZN4base12SharedMemory15DuplicateHandleERKNS_14FileDescriptorE(ptr noundef nonnull readonly align 4 captures(none) dereferenceable(5) %0) local_unnamed_addr #2 align 2 {
  br label %2

2:                                                ; preds = %6, %1
  %3 = load i32, ptr %0, align 4, !tbaa !20
  %4 = tail call i32 @dup(i32 noundef %3) #22
  %5 = icmp eq i32 %4, -1
  br i1 %5, label %6, label %.critedge

6:                                                ; preds = %2
  %7 = tail call ptr @__errno_location() #24
  %8 = load i32, ptr %7, align 4, !tbaa !25
  %9 = icmp eq i32 %8, 4
  br i1 %9, label %2, label %.critedge.thread, !llvm.loop !26

.critedge:                                        ; preds = %2
  %10 = icmp sgt i32 %4, -1
  %spec.select = tail call i32 @llvm.smax.i32(i32 %4, i32 -1)
  %11 = select i1 %10, i64 4294967296, i64 0
  %12 = zext i32 %spec.select to i64
  %13 = or disjoint i64 %11, %12
  br label %.critedge.thread

.critedge.thread:                                 ; preds = %6, %.critedge
  %.sroa.0.sroa.0.0.insert.insert = phi i64 [ %13, %.critedge ], [ 4294967295, %6 ]
  ret i64 %.sroa.0.sroa.0.0.insert.insert
}